; Function Attrs: mustprogress uwtable
define hidden void @_ZN3sat15model_converter7add_ateENS_7literalES1_(ptr noundef nonnull align 8 dereferenceable(40) %0, i32 %1, i32 %2) local_unnamed_addr #3 align 2 {
  %4 = getelementptr inbounds nuw i8, ptr %0, i64 32
  %5 = load ptr, ptr %4, align 8, !tbaa !180
  %6 = icmp eq ptr %5, null
  br i1 %6, label %_ZNK6vectorISt4pairIjN3sat7literalEELb0EjE5emptyEv.exit.thread, label %_ZNK6vectorISt4pairIjN3sat7literalEELb0EjE5emptyEv.exit

_ZNK6vectorISt4pairIjN3sat7literalEELb0EjE5emptyEv.exit: ; preds = %3
  %7 = getelementptr inbounds i8, ptr %5, i64 -4
  %8 = load i32, ptr %7, align 4, !tbaa !9
  %9 = icmp eq i32 %8, 0
  br i1 %9, label %_ZNK6vectorISt4pairIjN3sat7literalEELb0EjE5emptyEv.exit.thread, label %10

10:                                               ; preds = %_ZNK6vectorISt4pairIjN3sat7literalEELb0EjE5emptyEv.exit
  %11 = tail call noundef nonnull align 8 dereferenceable(32) ptr @_ZN3sat15model_converter2mkENS0_4kindEj(ptr noundef nonnull align 8 dereferenceable(40) %0, i32 noundef 5, i32 noundef 2147483647)
  tail call void @_ZN3sat15model_converter6insertERNS0_5entryENS_7literalES3_(ptr noundef nonnull align 8 dereferenceable(40) %0, ptr noundef nonnull align 8 dereferenceable(32) %11, i32 %1, i32 %2)
  br label %_ZNK6vectorISt4pairIjN3sat7literalEELb0EjE5emptyEv.exit.thread

_ZNK6vectorISt4pairIjN3sat7literalEELb0EjE5emptyEv.exit.thread: ; preds = %3, %_ZNK6vectorISt4pairIjN3sat7literalEELb0EjE5emptyEv.exit, %10
  ret void
}